; Function Attrs: nounwind uwtable
define ptr @Abc_NtkSopToCubes(ptr noundef %0, i32 noundef %1) local_unnamed_addr #0 {
  %3 = getelementptr inbounds nuw i8, ptr %0, i64 32
  %4 = load ptr, ptr %3, align 8
  %5 = getelementptr i8, ptr %4, i64 4
  %.val8.i = load i32, ptr %5, align 4
  %6 = icmp sgt i32 %.val8.i, 0
  br i1 %6, label %.lr.ph.i, label %Abc_NtkCleanCopy.exit

.lr.ph.i:                                         ; preds = %2, %14
  %7 = phi ptr [ %15, %14 ], [ %4, %2 ]
  %indvars.iv.i = phi i64 [ %indvars.iv.next.i, %14 ], [ 0, %2 ]
  %8 = getelementptr i8, ptr %7, i64 8
  %.val7.val.i = load ptr, ptr %8, align 8
  %9 = getelementptr inbounds nuw ptr, ptr %.val7.val.i, i64 %indvars.iv.i
  %10 = load ptr, ptr %9, align 8
  %11 = icmp eq ptr %10, null
  br i1 %11, label %14, label %12

12:                                               ; preds = %.lr.ph.i
  %13 = getelementptr inbounds nuw i8, ptr %10, i64 64
  store ptr null, ptr %13, align 8
  %.pre.i = load ptr, ptr %3, align 8
  br label %14

14:                                               ; preds = %12, %.lr.ph.i
  %15 = phi ptr [ %.pre.i, %12 ], [ %7, %.lr.ph.i ]
  %indvars.iv.next.i = add nuw nsw i64 %indvars.iv.i, 1
  %16 = getelementptr i8, ptr %15, i64 4
  %.val.i = load i32, ptr %16, align 4
  %17 = sext i32 %.val.i to i64
  %18 = icmp slt i64 %indvars.iv.next.i, %17
  br i1 %18, label %.lr.ph.i, label %Abc_NtkCleanCopy.exit, !llvm.loop !31

Abc_NtkCleanCopy.exit:                            ; preds = %14, %2
  %19 = tail call ptr @Abc_NtkStartFrom(ptr noundef %0, i32 noundef 2, i32 noundef 1) #28
  %20 = tail call ptr @Abc_NtkDfs(ptr noundef %0, i32 noundef 0) #28
  %21 = getelementptr i8, ptr %20, i64 4
  %.val1819 = load i32, ptr %21, align 4
  %22 = icmp sgt i32 %.val1819, 0
  br i1 %22, label %.lr.ph, label %.critedge

.lr.ph:                                           ; preds = %Abc_NtkCleanCopy.exit
  %23 = getelementptr i8, ptr %20, i64 8
  br label %24

24:                                               ; preds = %.lr.ph, %24
  %indvars.iv = phi i64 [ 0, %.lr.ph ], [ %indvars.iv.next, %24 ]
  %.val = load ptr, ptr %23, align 8
  %25 = getelementptr inbounds nuw ptr, ptr %.val, i64 %indvars.iv
  %26 = load ptr, ptr %25, align 8
  tail call void @Abc_NodeSopToCubes(ptr noundef %26, ptr noundef %19, i32 noundef %1)
  %indvars.iv.next = add nuw nsw i64 %indvars.iv, 1
  %.val18 = load i32, ptr %21, align 4
  %27 = sext i32 %.val18 to i64
  %28 = icmp slt i64 %indvars.iv.next, %27
  br i1 %28, label %24, label %.critedge, !llvm.loop !125

.critedge:                                        ; preds = %24, %Abc_NtkCleanCopy.exit
  %29 = getelementptr inbounds nuw i8, ptr %20, i64 8
  %30 = load ptr, ptr %29, align 8
  %.not.i = icmp eq ptr %30, null
  br i1 %.not.i, label %Vec_PtrFree.exit, label %31

31:                                               ; preds = %.critedge
  tail call void @free(ptr noundef nonnull %30) #28
  br label %Vec_PtrFree.exit

Vec_PtrFree.exit:                                 ; preds = %.critedge, %31
  tail call void @free(ptr noundef nonnull %20) #28
  tail call void @Abc_NtkFinalize(ptr noundef %0, ptr noundef %19) #28
  %32 = tail call i32 @Abc_NtkCheck(ptr noundef %19) #28
  %.not = icmp eq i32 %32, 0
  br i1 %.not, label %33, label %34

33:                                               ; preds = %Vec_PtrFree.exit
  %puts = tail call i32 @puts(ptr nonnull dereferenceable(1) @str.1)
  tail call void @Abc_NtkDelete(ptr noundef %19) #28
  br label %34

34:                                               ; preds = %Vec_PtrFree.exit, %33
  %.017 = phi ptr [ null, %33 ], [ %19, %Vec_PtrFree.exit ]
  ret ptr %.017
}